target datalayout = "e-m:e-p270:32:32-p271:32:32-p272:64:64-i64:64-i128:128-f80:128-n8:16:32:64-S128"
target triple = "x86_64-pc-linux-gnu"

%"class.zxing::BinaryBitmap" = type { %"class.zxing::Counted.base", %"class.zxing::Ref", %"class.zxing::Ref.0" }
%"class.zxing::Counted.base" = type <{ ptr, i32 }>
%"class.zxing::Ref" = type { ptr }
%"class.zxing::Ref.0" = type { ptr }
%"class.zxing::Counted" = type <{ ptr, i32, [4 x i8] }>
%"class.zxing::Ref.2" = type { ptr }
%"class.zxing::Ref.4" = type { ptr }

@_ZN5zxing12BinaryBitmapC1ENS_3RefINS_9BinarizerEEE = hidden unnamed_addr alias void (ptr, ptr), ptr @_ZN5zxing12BinaryBitmapC2ENS_3RefINS_9BinarizerEEE

; Function Attrs: mustprogress nounwind uwtable
define linkonce_odr hidden noundef ptr @_ZN5zxing7Counted6retainEv(ptr noundef nonnull align 8 dereferenceable(12) %0) #1 comdat align 2 {
  %2 = alloca ptr, align 8
  store ptr %0, ptr %2, align 8, !tbaa !12
  %3 = load ptr, ptr %2, align 8
  %4 = getelementptr inbounds nuw %"class.zxing::Counted", ptr %3, i32 0, i32 1
  %5 = load i32, ptr %4, align 8, !tbaa !14
  %6 = add i32 %5, 1
  store i32 %6, ptr %4, align 8, !tbaa !14
  ret ptr %3
}

; Function Attrs: noinline noreturn nounwind uwtable
define linkonce_odr hidden void @__clang_call_terminate(ptr noundef %0) #6 comdat {
  %2 = call ptr @__cxa_begin_catch(ptr %0) #7
  call void @_ZSt9terminatev() #9
  unreachable
}

; Function Attrs: mustprogress nounwind uwtable
define linkonce_odr hidden void @_ZN5zxing7Counted7releaseEv(ptr noundef nonnull align 8 dereferenceable(12) %0) #1 comdat align 2 {
  %2 = alloca ptr, align 8
  store ptr %0, ptr %2, align 8, !tbaa !12
  %3 = load ptr, ptr %2, align 8
  %4 = getelementptr inbounds nuw %"class.zxing::Counted", ptr %3, i32 0, i32 1
  %5 = load i32, ptr %4, align 8, !tbaa !14
  %6 = add i32 %5, -1
  store i32 %6, ptr %4, align 8, !tbaa !14
  %7 = getelementptr inbounds nuw %"class.zxing::Counted", ptr %3, i32 0, i32 1
  %8 = load i32, ptr %7, align 8, !tbaa !14
  %9 = icmp eq i32 %8, 0
  br i1 %9, label %10, label %18

10:                                               ; preds = %1
  %11 = getelementptr inbounds nuw %"class.zxing::Counted", ptr %3, i32 0, i32 1
  store i32 -559026175, ptr %11, align 8, !tbaa !14
  %12 = icmp eq ptr %3, null
  br i1 %12, label %17, label %13

13:                                               ; preds = %10
  %14 = load ptr, ptr %3, align 8, !tbaa !10
  %15 = getelementptr inbounds ptr, ptr %14, i64 1
  %16 = load ptr, ptr %15, align 8
  call void %16(ptr noundef nonnull align 8 dereferenceable(12) %3) #7
  br label %17

17:                                               ; preds = %13, %10
  br label %18

18:                                               ; preds = %17, %1
  ret void
}

; Function Attrs: mustprogress nounwind uwtable
define linkonce_odr hidden void @_ZN5zxing3RefINS_12BinaryBitmapEE5resetEPS1_(ptr noundef nonnull align 8 dereferenceable(8) %0, ptr noundef %1) #1 comdat align 2 {
  %3 = alloca ptr, align 8
  %4 = alloca ptr, align 8
  store ptr %0, ptr %3, align 8, !tbaa !46
  store ptr %1, ptr %4, align 8, !tbaa !3
  %5 = load ptr, ptr %3, align 8
  %6 = load ptr, ptr %4, align 8, !tbaa !3
  %7 = icmp ne ptr %6, null
  br i1 %7, label %8, label %11

8:                                                ; preds = %2
  %9 = load ptr, ptr %4, align 8, !tbaa !3
  %10 = call noundef ptr @_ZN5zxing7Counted6retainEv(ptr noundef nonnull align 8 dereferenceable(12) %9)
  br label %11

11:                                               ; preds = %8, %2
  %12 = getelementptr inbounds nuw %"class.zxing::Ref.4", ptr %5, i32 0, i32 0
  %13 = load ptr, ptr %12, align 8, !tbaa !48
  %14 = icmp ne ptr %13, null
  br i1 %14, label %15, label %18

15:                                               ; preds = %11
  %16 = getelementptr inbounds nuw %"class.zxing::Ref.4", ptr %5, i32 0, i32 0
  %17 = load ptr, ptr %16, align 8, !tbaa !48
  call void @_ZN5zxing7Counted7releaseEv(ptr noundef nonnull align 8 dereferenceable(12) %17)
  br label %18

18:                                               ; preds = %15, %11
  %19 = load ptr, ptr %4, align 8, !tbaa !3
  %20 = getelementptr inbounds nuw %"class.zxing::Ref.4", ptr %5, i32 0, i32 0
  store ptr %19, ptr %20, align 8, !tbaa !48
  ret void
}

; Function Attrs: mustprogress nounwind uwtable
define linkonce_odr hidden void @_ZN5zxing3RefINS_15LuminanceSourceEED2Ev(ptr noundef nonnull align 8 dereferenceable(8) %0) unnamed_addr #1 comdat align 2 personality ptr @__gxx_personality_v0 {
  %2 = alloca ptr, align 8
  store ptr %0, ptr %2, align 8, !tbaa !41
  %3 = load ptr, ptr %2, align 8
  %4 = getelementptr inbounds nuw %"class.zxing::Ref.2", ptr %3, i32 0, i32 0
  %5 = load ptr, ptr %4, align 8, !tbaa !43
  %6 = icmp ne ptr %5, null
  br i1 %6, label %7, label %11

7:                                                ; preds = %1
  %8 = getelementptr inbounds nuw %"class.zxing::Ref.2", ptr %3, i32 0, i32 0
  %9 = load ptr, ptr %8, align 8, !tbaa !43
  invoke void @_ZN5zxing7Counted7releaseEv(ptr noundef nonnull align 8 dereferenceable(12) %9)
          to label %10 unwind label %12

10:                                               ; preds = %7
  br label %11

11:                                               ; preds = %10, %1
  ret void

12:                                               ; preds = %7
  %13 = landingpad { ptr, i32 }
          catch ptr null
  %14 = extractvalue { ptr, i32 } %13, 0
  call void @__clang_call_terminate(ptr %14) #9
  unreachable
}

; Function Attrs: mustprogress nounwind uwtable
define linkonce_odr hidden void @_ZN5zxing3RefINS_9BinarizerEED2Ev(ptr noundef nonnull align 8 dereferenceable(8) %0) unnamed_addr #1 comdat align 2 {
  %2 = alloca ptr, align 8
  store ptr %0, ptr %2, align 8, !tbaa !8
  %3 = load ptr, ptr %2, align 8
  %4 = getelementptr inbounds nuw %"class.zxing::Ref", ptr %3, i32 0, i32 0
  %5 = load ptr, ptr %4, align 8, !tbaa !17
  %6 = icmp ne ptr %5, null
  br i1 %6, label %7, label %10

7:                                                ; preds = %1
  %8 = getelementptr inbounds nuw %"class.zxing::Ref", ptr %3, i32 0, i32 0
  %9 = load ptr, ptr %8, align 8, !tbaa !17
  call void @_ZN5zxing7Counted7releaseEv(ptr noundef nonnull align 8 dereferenceable(12) %9)
  br label %10

10:                                               ; preds = %7, %1
  ret void
}

; Function Attrs: mustprogress uwtable
define linkonce_odr hidden void @_ZN5zxing3RefINS_12BinaryBitmapEEC2EPS1_(ptr noundef nonnull align 8 dereferenceable(8) %0, ptr noundef %1) unnamed_addr #0 comdat align 2 {
  %3 = alloca ptr, align 8
  %4 = alloca ptr, align 8
  store ptr %0, ptr %3, align 8, !tbaa !46
  store ptr %1, ptr %4, align 8, !tbaa !3
  %5 = load ptr, ptr %3, align 8
  %6 = getelementptr inbounds nuw %"class.zxing::Ref.4", ptr %5, i32 0, i32 0
  store ptr null, ptr %6, align 8, !tbaa !48
  %7 = load ptr, ptr %4, align 8, !tbaa !3
  call void @_ZN5zxing3RefINS_12BinaryBitmapEE5resetEPS1_(ptr noundef nonnull align 8 dereferenceable(8) %5, ptr noundef %7)
  ret void
}

; Function Attrs: mustprogress nounwind uwtable
define linkonce_odr hidden noundef ptr @_ZNK5zxing3RefINS_15LuminanceSourceEEptEv(ptr noundef nonnull align 8 dereferenceable(8) %0) #1 comdat align 2 {
  %2 = alloca ptr, align 8
  store ptr %0, ptr %2, align 8, !tbaa !41
  %3 = load ptr, ptr %2, align 8
  %4 = getelementptr inbounds nuw %"class.zxing::Ref.2", ptr %3, i32 0, i32 0
  %5 = load ptr, ptr %4, align 8, !tbaa !43
  ret ptr %5
}

; Function Attrs: mustprogress uwtable
define hidden void @_ZNK5zxing12BinaryBitmap18getLuminanceSourceEv(ptr dead_on_unwind noalias writable sret(%"class.zxing::Ref.2") align 8 %0, ptr noundef nonnull align 8 dereferenceable(32) %1) #0 align 2 {
  %3 = alloca ptr, align 8
  %4 = alloca ptr, align 8
  store ptr %0, ptr %3, align 8
  store ptr %1, ptr %4, align 8, !tbaa !3
  %5 = load ptr, ptr %4, align 8
  %6 = getelementptr inbounds nuw %"class.zxing::BinaryBitmap", ptr %5, i32 0, i32 1
  %7 = call noundef ptr @_ZNK5zxing3RefINS_9BinarizerEEptEv(ptr noundef nonnull align 8 dereferenceable(8) %6)
  call void @_ZNK5zxing9Binarizer18getLuminanceSourceEv(ptr dead_on_unwind writable sret(%"class.zxing::Ref.2") align 8 %0, ptr noundef nonnull align 8 dereferenceable(72) %7)
  ret void
}

; Function Attrs: mustprogress nounwind uwtable
define linkonce_odr hidden noundef ptr @_ZNK5zxing3RefINS_9BinarizerEEptEv(ptr noundef nonnull align 8 dereferenceable(8) %0) #1 comdat align 2 {
  %2 = alloca ptr, align 8
  store ptr %0, ptr %2, align 8, !tbaa !8
  %3 = load ptr, ptr %2, align 8
  %4 = getelementptr inbounds nuw %"class.zxing::Ref", ptr %3, i32 0, i32 0
  %5 = load ptr, ptr %4, align 8, !tbaa !17
  ret ptr %5
}

; Function Attrs: mustprogress uwtable
define hidden void @_ZN5zxing12BinaryBitmap4cropEiiiiRNS_12ErrorHandlerE(ptr dead_on_unwind noalias writable sret(%"class.zxing::Ref.4") align 8 %0, ptr noundef nonnull align 8 dereferenceable(32) %1, i32 noundef %2, i32 noundef %3, i32 noundef %4, i32 noundef %5, ptr noundef nonnull align 8 dereferenceable(48) %6) #0 align 2 personality ptr @__gxx_personality_v0 {
  %8 = alloca ptr, align 8
  %9 = alloca ptr, align 8
  %10 = alloca i32, align 4
  %11 = alloca i32, align 4
  %12 = alloca i32, align 4
  %13 = alloca i32, align 4
  %14 = alloca ptr, align 8
  %15 = alloca %"class.zxing::Ref", align 8
  %16 = alloca ptr, align 8
  %17 = alloca i32, align 4
  %18 = alloca %"class.zxing::Ref.2", align 8
  %19 = alloca %"class.zxing::Ref.2", align 8
  %20 = alloca i1, align 1
  store ptr %0, ptr %8, align 8
  store ptr %1, ptr %9, align 8, !tbaa !3
  store i32 %2, ptr %10, align 4, !tbaa !26
  store i32 %3, ptr %11, align 4, !tbaa !26
  store i32 %4, ptr %12, align 4, !tbaa !26
  store i32 %5, ptr %13, align 4, !tbaa !26
  store ptr %6, ptr %14, align 8, !tbaa !29
  %21 = load ptr, ptr %9, align 8
  %22 = call noalias noundef nonnull ptr @_Znwm(i64 noundef 32) #10
  store i1 true, ptr %20, align 1
  %23 = getelementptr inbounds nuw %"class.zxing::BinaryBitmap", ptr %21, i32 0, i32 1
  %24 = invoke noundef ptr @_ZNK5zxing3RefINS_9BinarizerEEptEv(ptr noundef nonnull align 8 dereferenceable(8) %23)
          to label %25 unwind label %44

25:                                               ; preds = %7
  call void @llvm.lifetime.start.p0(i64 8, ptr %19) #7
  invoke void @_ZNK5zxing12BinaryBitmap18getLuminanceSourceEv(ptr dead_on_unwind writable sret(%"class.zxing::Ref.2") align 8 %19, ptr noundef nonnull align 8 dereferenceable(32) %21)
          to label %26 unwind label %48

26:                                               ; preds = %25
  %27 = invoke noundef ptr @_ZNK5zxing3RefINS_15LuminanceSourceEEptEv(ptr noundef nonnull align 8 dereferenceable(8) %19)
          to label %28 unwind label %52

28:                                               ; preds = %26
  %29 = load i32, ptr %10, align 4, !tbaa !26
  %30 = load i32, ptr %11, align 4, !tbaa !26
  %31 = load i32, ptr %12, align 4, !tbaa !26
  %32 = load i32, ptr %13, align 4, !tbaa !26
  %33 = load ptr, ptr %14, align 8, !tbaa !29
  %34 = load ptr, ptr %27, align 8, !tbaa !10
  %35 = getelementptr inbounds ptr, ptr %34, i64 6
  %36 = load ptr, ptr %35, align 8
  invoke void %36(ptr dead_on_unwind writable sret(%"class.zxing::Ref.2") align 8 %18, ptr noundef nonnull align 8 dereferenceable(20) %27, i32 noundef %29, i32 noundef %30, i32 noundef %31, i32 noundef %32, ptr noundef nonnull align 8 dereferenceable(48) %33)
          to label %37 unwind label %52

37:                                               ; preds = %28
  %38 = load ptr, ptr %24, align 8, !tbaa !10
  %39 = getelementptr inbounds ptr, ptr %38, i64 5
  %40 = load ptr, ptr %39, align 8
  invoke void %40(ptr dead_on_unwind writable sret(%"class.zxing::Ref") align 8 %15, ptr noundef nonnull align 8 dereferenceable(72) %24, ptr noundef %18)
          to label %41 unwind label %56

41:                                               ; preds = %37
  invoke void @_ZN5zxing12BinaryBitmapC1ENS_3RefINS_9BinarizerEEE(ptr noundef nonnull align 8 dereferenceable(32) %22, ptr noundef %15)
          to label %42 unwind label %60

42:                                               ; preds = %41
  store i1 false, ptr %20, align 1
  invoke void @_ZN5zxing3RefINS_12BinaryBitmapEEC2EPS1_(ptr noundef nonnull align 8 dereferenceable(8) %0, ptr noundef %22)
          to label %43 unwind label %60

43:                                               ; preds = %42
  call void @_ZN5zxing3RefINS_9BinarizerEED2Ev(ptr noundef nonnull align 8 dereferenceable(8) %15) #7
  call void @_ZN5zxing3RefINS_15LuminanceSourceEED2Ev(ptr noundef nonnull align 8 dereferenceable(8) %18) #7
  call void @_ZN5zxing3RefINS_15LuminanceSourceEED2Ev(ptr noundef nonnull align 8 dereferenceable(8) %19) #7
  call void @llvm.lifetime.end.p0(i64 8, ptr %19) #7
  ret void

44:                                               ; preds = %7
  %45 = landingpad { ptr, i32 }
          cleanup
  %46 = extractvalue { ptr, i32 } %45, 0
  store ptr %46, ptr %16, align 8
  %47 = extractvalue { ptr, i32 } %45, 1
  store i32 %47, ptr %17, align 4
  br label %67

48:                                               ; preds = %25
  %49 = landingpad { ptr, i32 }
          cleanup
  %50 = extractvalue { ptr, i32 } %49, 0
  store ptr %50, ptr %16, align 8
  %51 = extractvalue { ptr, i32 } %49, 1
  store i32 %51, ptr %17, align 4
  br label %66

52:                                               ; preds = %28, %26
  %53 = landingpad { ptr, i32 }
          cleanup
  %54 = extractvalue { ptr, i32 } %53, 0
  store ptr %54, ptr %16, align 8
  %55 = extractvalue { ptr, i32 } %53, 1
  store i32 %55, ptr %17, align 4
  br label %65

56:                                               ; preds = %37
  %57 = landingpad { ptr, i32 }
          cleanup
  %58 = extractvalue { ptr, i32 } %57, 0
  store ptr %58, ptr %16, align 8
  %59 = extractvalue { ptr, i32 } %57, 1
  store i32 %59, ptr %17, align 4
  br label %64

60:                                               ; preds = %42, %41
  %61 = landingpad { ptr, i32 }
          cleanup
  %62 = extractvalue { ptr, i32 } %61, 0
  store ptr %62, ptr %16, align 8
  %63 = extractvalue { ptr, i32 } %61, 1
  store i32 %63, ptr %17, align 4
  call void @_ZN5zxing3RefINS_9BinarizerEED2Ev(ptr noundef nonnull align 8 dereferenceable(8) %15) #7
  br label %64

64:                                               ; preds = %60, %56
  call void @_ZN5zxing3RefINS_15LuminanceSourceEED2Ev(ptr noundef nonnull align 8 dereferenceable(8) %18) #7
  br label %65

65:                                               ; preds = %64, %52
  call void @_ZN5zxing3RefINS_15LuminanceSourceEED2Ev(ptr noundef nonnull align 8 dereferenceable(8) %19) #7
  br label %66

66:                                               ; preds = %65, %48
  call void @llvm.lifetime.end.p0(i64 8, ptr %19) #7
  br label %67

67:                                               ; preds = %66, %44
  %68 = load i1, ptr %20, align 1
  br i1 %68, label %69, label %70

69:                                               ; preds = %67
  call void @_ZdlPv(ptr noundef %22) #8
  br label %70

70:                                               ; preds = %69, %67
  br label %71

71:                                               ; preds = %70
  %72 = load ptr, ptr %16, align 8
  %73 = load i32, ptr %17, align 4
  %74 = insertvalue { ptr, i32 } poison, ptr %72, 0
  %75 = insertvalue { ptr, i32 } %74, i32 %73, 1
  resume { ptr, i32 } %75
}