; Function Attrs: mustprogress uwtable
define hidden void @_ZN5zxing12BinaryBitmap4cropEiiiiRNS_12ErrorHandlerE(ptr dead_on_unwind noalias writable writeonly sret(%"class.zxing::Ref.4") align 8 captures(none) %0, ptr noundef nonnull readonly align 8 captures(none) dereferenceable(32) %1, i32 noundef %2, i32 noundef %3, i32 noundef %4, i32 noundef %5, ptr noundef nonnull align 8 dereferenceable(48) %6) local_unnamed_addr #3 align 2 personality ptr @__gxx_personality_v0 {
  %8 = alloca %"class.zxing::Ref", align 8
  %9 = alloca %"class.zxing::Ref.2", align 8
  %10 = alloca %"class.zxing::Ref.2", align 8
  %11 = tail call noalias noundef nonnull dereferenceable(32) ptr @_Znwm(i64 noundef 32) #11
  %12 = getelementptr inbounds nuw i8, ptr %1, i64 16
  %13 = load ptr, ptr %12, align 8, !tbaa !10
  call void @llvm.lifetime.start.p0(i64 8, ptr nonnull %10) #9
  invoke void @_ZNK5zxing9Binarizer18getLuminanceSourceEv(ptr dead_on_unwind nonnull writable sret(%"class.zxing::Ref.2") align 8 %10, ptr noundef nonnull align 8 dereferenceable(72) %13)
          to label %_ZNK5zxing12BinaryBitmap18getLuminanceSourceEv.exit unwind label %_ZN5zxing3RefINS_15LuminanceSourceEED2Ev.exit25.thread

_ZNK5zxing12BinaryBitmap18getLuminanceSourceEv.exit: ; preds = %7
  %14 = load ptr, ptr %10, align 8, !tbaa !26
  %15 = load ptr, ptr %14, align 8, !tbaa !8
  %16 = getelementptr inbounds nuw i8, ptr %15, i64 48
  %17 = load ptr, ptr %16, align 8
  invoke void %17(ptr dead_on_unwind nonnull writable sret(%"class.zxing::Ref.2") align 8 %9, ptr noundef nonnull align 8 dereferenceable(20) %14, i32 noundef %2, i32 noundef %3, i32 noundef %4, i32 noundef %5, ptr noundef nonnull align 8 dereferenceable(48) %6)
          to label %18 unwind label %61

18:                                               ; preds = %_ZNK5zxing12BinaryBitmap18getLuminanceSourceEv.exit
  %19 = load ptr, ptr %13, align 8, !tbaa !8
  %20 = getelementptr inbounds nuw i8, ptr %19, i64 40
  %21 = load ptr, ptr %20, align 8
  invoke void %21(ptr dead_on_unwind nonnull writable sret(%"class.zxing::Ref") align 8 %8, ptr noundef nonnull align 8 dereferenceable(72) %13, ptr noundef nonnull %9)
          to label %22 unwind label %63

22:                                               ; preds = %18
  %23 = getelementptr inbounds nuw i8, ptr %11, i64 8
  store i32 0, ptr %23, align 8, !tbaa !3
  store ptr getelementptr inbounds nuw inrange(-16, 16) (i8, ptr @_ZTVN5zxing12BinaryBitmapE, i64 16), ptr %11, align 8, !tbaa !8
  %24 = getelementptr inbounds nuw i8, ptr %11, i64 16
  store ptr null, ptr %24, align 8, !tbaa !10
  %25 = load ptr, ptr %8, align 8, !tbaa !10
  %.not.i.i.i = icmp eq ptr %25, null
  br i1 %.not.i.i.i, label %.thread, label %26

.thread:                                          ; preds = %22
  call void @llvm.memset.p0.i64(ptr noundef nonnull align 8 dereferenceable(16) %24, i8 0, i64 16, i1 false)
  store i32 1, ptr %23, align 8, !tbaa !3
  store ptr %11, ptr %0, align 8, !tbaa !29
  br label %_ZN5zxing3RefINS_9BinarizerEED2Ev.exit

26:                                               ; preds = %22
  %27 = getelementptr inbounds nuw i8, ptr %25, i64 8
  %28 = load i32, ptr %27, align 8, !tbaa !3
  %29 = add i32 %28, 1
  store i32 %29, ptr %27, align 8, !tbaa !3
  store ptr %25, ptr %24, align 8, !tbaa !10
  %30 = getelementptr inbounds nuw i8, ptr %11, i64 24
  store ptr null, ptr %30, align 8, !tbaa !14
  %31 = load i32, ptr %23, align 8, !tbaa !3
  %32 = add i32 %31, 1
  store i32 %32, ptr %23, align 8, !tbaa !3
  store ptr %11, ptr %0, align 8, !tbaa !29
  %33 = load i32, ptr %27, align 8, !tbaa !3
  %34 = add i32 %33, -1
  store i32 %34, ptr %27, align 8, !tbaa !3
  %35 = icmp eq i32 %34, 0
  br i1 %35, label %36, label %_ZN5zxing3RefINS_9BinarizerEED2Ev.exit

36:                                               ; preds = %26
  store i32 -559026175, ptr %27, align 8, !tbaa !3
  %37 = load ptr, ptr %25, align 8, !tbaa !8
  %38 = getelementptr inbounds nuw i8, ptr %37, i64 8
  %39 = load ptr, ptr %38, align 8
  call void %39(ptr noundef nonnull align 8 dereferenceable(12) %25) #9
  br label %_ZN5zxing3RefINS_9BinarizerEED2Ev.exit

_ZN5zxing3RefINS_9BinarizerEED2Ev.exit:           ; preds = %.thread, %26, %36
  %40 = load ptr, ptr %9, align 8, !tbaa !26
  %.not.i17 = icmp eq ptr %40, null
  br i1 %.not.i17, label %_ZN5zxing3RefINS_15LuminanceSourceEED2Ev.exit, label %41

41:                                               ; preds = %_ZN5zxing3RefINS_9BinarizerEED2Ev.exit
  %42 = getelementptr inbounds nuw i8, ptr %40, i64 8
  %43 = load i32, ptr %42, align 8, !tbaa !3
  %44 = add i32 %43, -1
  store i32 %44, ptr %42, align 8, !tbaa !3
  %45 = icmp eq i32 %44, 0
  br i1 %45, label %46, label %_ZN5zxing3RefINS_15LuminanceSourceEED2Ev.exit

46:                                               ; preds = %41
  store i32 -559026175, ptr %42, align 8, !tbaa !3
  %47 = load ptr, ptr %40, align 8, !tbaa !8
  %48 = getelementptr inbounds nuw i8, ptr %47, i64 8
  %49 = load ptr, ptr %48, align 8
  call void %49(ptr noundef nonnull align 8 dereferenceable(12) %40) #9
  br label %_ZN5zxing3RefINS_15LuminanceSourceEED2Ev.exit

_ZN5zxing3RefINS_15LuminanceSourceEED2Ev.exit:    ; preds = %_ZN5zxing3RefINS_9BinarizerEED2Ev.exit, %41, %46
  %50 = load ptr, ptr %10, align 8, !tbaa !26
  %.not.i18 = icmp eq ptr %50, null
  br i1 %.not.i18, label %_ZN5zxing3RefINS_15LuminanceSourceEED2Ev.exit19, label %51

51:                                               ; preds = %_ZN5zxing3RefINS_15LuminanceSourceEED2Ev.exit
  %52 = getelementptr inbounds nuw i8, ptr %50, i64 8
  %53 = load i32, ptr %52, align 8, !tbaa !3
  %54 = add i32 %53, -1
  store i32 %54, ptr %52, align 8, !tbaa !3
  %55 = icmp eq i32 %54, 0
  br i1 %55, label %56, label %_ZN5zxing3RefINS_15LuminanceSourceEED2Ev.exit19

56:                                               ; preds = %51
  store i32 -559026175, ptr %52, align 8, !tbaa !3
  %57 = load ptr, ptr %50, align 8, !tbaa !8
  %58 = getelementptr inbounds nuw i8, ptr %57, i64 8
  %59 = load ptr, ptr %58, align 8
  call void %59(ptr noundef nonnull align 8 dereferenceable(12) %50) #9
  br label %_ZN5zxing3RefINS_15LuminanceSourceEED2Ev.exit19

_ZN5zxing3RefINS_15LuminanceSourceEED2Ev.exit19:  ; preds = %_ZN5zxing3RefINS_15LuminanceSourceEED2Ev.exit, %51, %56
  call void @llvm.lifetime.end.p0(i64 8, ptr nonnull %10) #9
  ret void

_ZN5zxing3RefINS_15LuminanceSourceEED2Ev.exit25.thread: ; preds = %7
  %60 = landingpad { ptr, i32 }
          cleanup
  br label %_ZN5zxing3RefINS_15LuminanceSourceEED2Ev.exit25

61:                                               ; preds = %_ZNK5zxing12BinaryBitmap18getLuminanceSourceEv.exit
  %62 = landingpad { ptr, i32 }
          cleanup
  br label %_ZN5zxing3RefINS_15LuminanceSourceEED2Ev.exit23

63:                                               ; preds = %18
  %64 = landingpad { ptr, i32 }
          cleanup
  %65 = load ptr, ptr %9, align 8, !tbaa !26
  %.not.i22 = icmp eq ptr %65, null
  br i1 %.not.i22, label %_ZN5zxing3RefINS_15LuminanceSourceEED2Ev.exit23, label %66

66:                                               ; preds = %63
  %67 = getelementptr inbounds nuw i8, ptr %65, i64 8
  %68 = load i32, ptr %67, align 8, !tbaa !3
  %69 = add i32 %68, -1
  store i32 %69, ptr %67, align 8, !tbaa !3
  %70 = icmp eq i32 %69, 0
  br i1 %70, label %71, label %_ZN5zxing3RefINS_15LuminanceSourceEED2Ev.exit23

71:                                               ; preds = %66
  store i32 -559026175, ptr %67, align 8, !tbaa !3
  %72 = load ptr, ptr %65, align 8, !tbaa !8
  %73 = getelementptr inbounds nuw i8, ptr %72, i64 8
  %74 = load ptr, ptr %73, align 8
  call void %74(ptr noundef nonnull align 8 dereferenceable(12) %65) #9
  br label %_ZN5zxing3RefINS_15LuminanceSourceEED2Ev.exit23

_ZN5zxing3RefINS_15LuminanceSourceEED2Ev.exit23:  ; preds = %71, %66, %63, %61
  %.pn.pn = phi { ptr, i32 } [ %62, %61 ], [ %64, %63 ], [ %64, %66 ], [ %64, %71 ]
  %75 = load ptr, ptr %10, align 8, !tbaa !26
  %.not.i24 = icmp eq ptr %75, null
  br i1 %.not.i24, label %_ZN5zxing3RefINS_15LuminanceSourceEED2Ev.exit25, label %76

76:                                               ; preds = %_ZN5zxing3RefINS_15LuminanceSourceEED2Ev.exit23
  %77 = getelementptr inbounds nuw i8, ptr %75, i64 8
  %78 = load i32, ptr %77, align 8, !tbaa !3
  %79 = add i32 %78, -1
  store i32 %79, ptr %77, align 8, !tbaa !3
  %80 = icmp eq i32 %79, 0
  br i1 %80, label %81, label %_ZN5zxing3RefINS_15LuminanceSourceEED2Ev.exit25

81:                                               ; preds = %76
  store i32 -559026175, ptr %77, align 8, !tbaa !3
  %82 = load ptr, ptr %75, align 8, !tbaa !8
  %83 = getelementptr inbounds nuw i8, ptr %82, i64 8
  %84 = load ptr, ptr %83, align 8
  call void %84(ptr noundef nonnull align 8 dereferenceable(12) %75) #9
  br label %_ZN5zxing3RefINS_15LuminanceSourceEED2Ev.exit25

_ZN5zxing3RefINS_15LuminanceSourceEED2Ev.exit25:  ; preds = %_ZN5zxing3RefINS_15LuminanceSourceEED2Ev.exit23, %76, %81, %_ZN5zxing3RefINS_15LuminanceSourceEED2Ev.exit25.thread
  %.pn.pn.pn29 = phi { ptr, i32 } [ %60, %_ZN5zxing3RefINS_15LuminanceSourceEED2Ev.exit25.thread ], [ %.pn.pn, %81 ], [ %.pn.pn, %76 ], [ %.pn.pn, %_ZN5zxing3RefINS_15LuminanceSourceEED2Ev.exit23 ]
  call void @llvm.lifetime.end.p0(i64 8, ptr nonnull %10) #9
  call void @_ZdlPv(ptr noundef nonnull %11) #10
  resume { ptr, i32 } %.pn.pn.pn29
}